target datalayout = "e-m:e-p270:32:32-p271:32:32-p272:64:64-i64:64-i128:128-f80:128-n8:16:32:64-S128"
target triple = "x86_64-pc-linux-gnu"

%"class.std::_Function_base" = type { %"union.std::_Any_data", ptr }
%"union.std::_Any_data" = type { %"union.std::_Nocopy_types" }
%"union.std::_Nocopy_types" = type { { i64, i64 } }
%"class.sat::lut_finder" = type { ptr, i32, %class.vector, i64, i32, %class.ptr_vector, %class.svector, %class.svector, %class.svector.2, %class.svector, [7 x i64], %class.ptr_vector, %"class.std::function" }
%class.vector = type { ptr }
%class.svector.2 = type { %class.vector.3 }
%class.vector.3 = type { ptr }
%class.svector = type { %class.vector.1 }
%class.vector.1 = type { ptr }
%class.ptr_vector = type { %class.vector.0 }
%class.vector.0 = type { ptr }
%"class.std::function" = type { %"class.std::_Function_base", ptr }

; Function Attrs: mustprogress nounwind uwtable
define hidden noundef zeroext i1 @_ZN3sat10lut_finder14lut_is_definedEjj(ptr noundef nonnull align 8 dereferenceable(176) %0, i32 noundef %1, i32 noundef %2) #5 align 2 {
  %4 = alloca ptr, align 8
  %5 = alloca i32, align 4
  %6 = alloca i32, align 4
  %7 = alloca i64, align 8
  %8 = alloca i64, align 8
  store ptr %0, ptr %4, align 8, !tbaa !3
  store i32 %1, ptr %5, align 4, !tbaa !29
  store i32 %2, ptr %6, align 4, !tbaa !29
  %9 = load ptr, ptr %4, align 8
  call void @llvm.lifetime.start.p0(i64 8, ptr %7) #3
  %10 = getelementptr inbounds nuw %"class.sat::lut_finder", ptr %9, i32 0, i32 3
  %11 = load i64, ptr %10, align 8, !tbaa !55
  %12 = getelementptr inbounds nuw %"class.sat::lut_finder", ptr %9, i32 0, i32 3
  %13 = load i64, ptr %12, align 8, !tbaa !55
  %14 = load i32, ptr %5, align 4, !tbaa !29
  %15 = zext i32 %14 to i64
  %16 = shl i64 1, %15
  %17 = lshr i64 %13, %16
  %18 = or i64 %11, %17
  store i64 %18, ptr %7, align 8, !tbaa !30
  call void @llvm.lifetime.start.p0(i64 8, ptr %8) #3
  %19 = getelementptr inbounds nuw %"class.sat::lut_finder", ptr %9, i32 0, i32 10
  %20 = load i32, ptr %5, align 4, !tbaa !29
  %21 = zext i32 %20 to i64
  %22 = getelementptr inbounds nuw [7 x i64], ptr %19, i64 0, i64 %21
  %23 = load i64, ptr %22, align 8, !tbaa !30
  store i64 %23, ptr %8, align 8, !tbaa !30
  %24 = load i32, ptr %6, align 4, !tbaa !29
  %25 = icmp ult i32 %24, 6
  br i1 %25, label %26, label %34

26:                                               ; preds = %3
  %27 = load i32, ptr %6, align 4, !tbaa !29
  %28 = zext i32 %27 to i64
  %29 = shl i64 1, %28
  %30 = shl i64 1, %29
  %31 = sub i64 %30, 1
  %32 = load i64, ptr %8, align 8, !tbaa !30
  %33 = and i64 %32, %31
  store i64 %33, ptr %8, align 8, !tbaa !30
  br label %34

34:                                               ; preds = %26, %3
  %35 = load i64, ptr %7, align 8, !tbaa !30
  %36 = load i64, ptr %8, align 8, !tbaa !30
  %37 = and i64 %35, %36
  %38 = load i64, ptr %8, align 8, !tbaa !30
  %39 = icmp eq i64 %37, %38
  call void @llvm.lifetime.end.p0(i64 8, ptr %8) #3
  call void @llvm.lifetime.end.p0(i64 8, ptr %7) #3
  ret i1 %39
}

; Function Attrs: inlinehint mustprogress nounwind uwtable
define linkonce_odr hidden noundef zeroext i1 @_ZNK3sat10lut_finder15get_combinationEj(ptr noundef nonnull align 8 dereferenceable(176) %0, i32 noundef %1) #9 comdat align 2 {
  %3 = alloca ptr, align 8
  %4 = alloca i32, align 4
  store ptr %0, ptr %3, align 8, !tbaa !3
  store i32 %1, ptr %4, align 4, !tbaa !29
  %5 = load ptr, ptr %3, align 8
  %6 = getelementptr inbounds nuw %"class.sat::lut_finder", ptr %5, i32 0, i32 3
  %7 = load i64, ptr %6, align 8, !tbaa !55
  %8 = load i32, ptr %4, align 4, !tbaa !29
  %9 = zext i32 %8 to i64
  %10 = shl i64 1, %9
  %11 = and i64 %7, %10
  %12 = icmp ne i64 %11, 0
  ret i1 %12
}

; Function Attrs: mustprogress uwtable
define hidden noundef zeroext i1 @_ZN3sat10lut_finder14lut_is_definedEj(ptr noundef nonnull align 8 dereferenceable(176) %0, i32 noundef %1) #4 align 2 {
  %3 = alloca i1, align 1
  %4 = alloca ptr, align 8
  %5 = alloca i32, align 4
  %6 = alloca i32, align 4
  %7 = alloca i32, align 4
  store ptr %0, ptr %4, align 8, !tbaa !3
  store i32 %1, ptr %5, align 4, !tbaa !29
  %8 = load ptr, ptr %4, align 8
  %9 = getelementptr inbounds nuw %"class.sat::lut_finder", ptr %8, i32 0, i32 4
  %10 = load i32, ptr %9, align 8, !tbaa !56
  %11 = zext i32 %10 to i64
  %12 = load i32, ptr %5, align 4, !tbaa !29
  %13 = udiv i32 %12, 2
  %14 = zext i32 %13 to i64
  %15 = shl i64 1, %14
  %16 = icmp ult i64 %11, %15
  br i1 %16, label %17, label %18

17:                                               ; preds = %2
  store i1 false, ptr %3, align 1
  br label %34

18:                                               ; preds = %2
  call void @llvm.lifetime.start.p0(i64 4, ptr %6) #3
  %19 = load i32, ptr %5, align 4, !tbaa !29
  store i32 %19, ptr %6, align 4, !tbaa !29
  br label %20

20:                                               ; preds = %30, %18
  %21 = load i32, ptr %6, align 4, !tbaa !29
  %22 = add i32 %21, -1
  store i32 %22, ptr %6, align 4, !tbaa !29
  %23 = icmp ugt i32 %21, 0
  br i1 %23, label %25, label %24

24:                                               ; preds = %20
  store i32 2, ptr %7, align 4
  br label %31

25:                                               ; preds = %20
  %26 = load i32, ptr %6, align 4, !tbaa !29
  %27 = load i32, ptr %5, align 4, !tbaa !29
  %28 = call noundef zeroext i1 @_ZN3sat10lut_finder14lut_is_definedEjj(ptr noundef nonnull align 8 dereferenceable(176) %8, i32 noundef %26, i32 noundef %27)
  br i1 %28, label %29, label %30

29:                                               ; preds = %25
  store i1 true, ptr %3, align 1
  store i32 1, ptr %7, align 4
  br label %31

30:                                               ; preds = %25
  br label %20, !llvm.loop !104

31:                                               ; preds = %29, %24
  call void @llvm.lifetime.end.p0(i64 4, ptr %6) #3
  %32 = load i32, ptr %7, align 4
  switch i32 %32, label %36 [
    i32 2, label %33
    i32 1, label %34
  ]

33:                                               ; preds = %31
  store i1 false, ptr %3, align 1
  br label %34

34:                                               ; preds = %33, %31, %17
  %35 = load i1, ptr %3, align 1
  ret i1 %35

36:                                               ; preds = %31
  unreachable
}

; Function Attrs: mustprogress uwtable
define hidden void @_ZN3sat10lut_finder15set_combinationEj(ptr noundef nonnull align 8 dereferenceable(176) %0, i32 noundef %1) #4 align 2 {
  %3 = alloca ptr, align 8
  %4 = alloca i32, align 4
  store ptr %0, ptr %3, align 8, !tbaa !3
  store i32 %1, ptr %4, align 4, !tbaa !29
  %5 = load ptr, ptr %3, align 8
  %6 = load i32, ptr %4, align 4, !tbaa !29
  %7 = call noundef zeroext i1 @_ZNK3sat10lut_finder15get_combinationEj(ptr noundef nonnull align 8 dereferenceable(176) %5, i32 noundef %6)
  br i1 %7, label %18, label %8

8:                                                ; preds = %2
  %9 = load i32, ptr %4, align 4, !tbaa !29
  %10 = zext i32 %9 to i64
  %11 = shl i64 1, %10
  %12 = getelementptr inbounds nuw %"class.sat::lut_finder", ptr %5, i32 0, i32 3
  %13 = load i64, ptr %12, align 8, !tbaa !55
  %14 = or i64 %13, %11
  store i64 %14, ptr %12, align 8, !tbaa !55
  %15 = getelementptr inbounds nuw %"class.sat::lut_finder", ptr %5, i32 0, i32 4
  %16 = load i32, ptr %15, align 8, !tbaa !56
  %17 = add i32 %16, 1
  store i32 %17, ptr %15, align 8, !tbaa !56
  br label %18

18:                                               ; preds = %8, %2
  ret void
}

; Function Attrs: mustprogress nounwind uwtable
define linkonce_odr hidden noundef nonnull align 4 dereferenceable(4) ptr @_ZN6vectorIjLb0EjEixEj(ptr noundef nonnull align 8 dereferenceable(8) %0, i32 noundef %1) #5 comdat align 2 {
  %3 = alloca ptr, align 8
  %4 = alloca i32, align 4
  store ptr %0, ptr %3, align 8, !tbaa !41
  store i32 %1, ptr %4, align 4, !tbaa !29
  %5 = load ptr, ptr %3, align 8
  %6 = getelementptr inbounds nuw %class.vector.1, ptr %5, i32 0, i32 0
  %7 = load ptr, ptr %6, align 8, !tbaa !44
  %8 = load i32, ptr %4, align 4, !tbaa !29
  %9 = zext i32 %8 to i64
  %10 = getelementptr inbounds nuw i32, ptr %7, i64 %9
  ret ptr %10
}

; Function Attrs: mustprogress nounwind uwtable
define linkonce_odr hidden noundef i32 @_ZNK6vectorIjLb0EjE4sizeEv(ptr noundef nonnull align 8 dereferenceable(8) %0) #5 comdat align 2 {
  %2 = alloca i32, align 4
  %3 = alloca ptr, align 8
  store ptr %0, ptr %3, align 8, !tbaa !41
  %4 = load ptr, ptr %3, align 8
  %5 = getelementptr inbounds nuw %class.vector.1, ptr %4, i32 0, i32 0
  %6 = load ptr, ptr %5, align 8, !tbaa !44
  %7 = icmp eq ptr %6, null
  br i1 %7, label %8, label %9

8:                                                ; preds = %1
  store i32 0, ptr %2, align 4
  br label %14

9:                                                ; preds = %1
  %10 = getelementptr inbounds nuw %class.vector.1, ptr %4, i32 0, i32 0
  %11 = load ptr, ptr %10, align 8, !tbaa !44
  %12 = getelementptr inbounds i32, ptr %11, i64 -1
  %13 = load i32, ptr %12, align 4, !tbaa !29
  store i32 %13, ptr %2, align 4
  br label %14

14:                                               ; preds = %9, %8
  %15 = load i32, ptr %2, align 4
  ret i32 %15
}

; Function Attrs: mustprogress uwtable
define hidden noundef zeroext i1 @_ZN3sat10lut_finder19update_combinationsEj(ptr noundef nonnull align 8 dereferenceable(176) %0, i32 noundef %1) #4 align 2 {
  %3 = alloca ptr, align 8
  %4 = alloca i32, align 4
  %5 = alloca i32, align 4
  %6 = alloca i32, align 4
  %7 = alloca i32, align 4
  %8 = alloca i32, align 4
  %9 = alloca i32, align 4
  store ptr %0, ptr %3, align 8, !tbaa !3
  store i32 %1, ptr %4, align 4, !tbaa !29
  %10 = load ptr, ptr %3, align 8
  call void @llvm.lifetime.start.p0(i64 4, ptr %5) #3
  %11 = getelementptr inbounds nuw %"class.sat::lut_finder", ptr %10, i32 0, i32 9
  %12 = call noundef i32 @_ZNK6vectorIjLb0EjE4sizeEv(ptr noundef nonnull align 8 dereferenceable(8) %11)
  store i32 %12, ptr %5, align 4, !tbaa !29
  call void @llvm.lifetime.start.p0(i64 4, ptr %6) #3
  store i32 0, ptr %6, align 4, !tbaa !29
  br label %13

13:                                               ; preds = %51, %2
  %14 = load i32, ptr %6, align 4, !tbaa !29
  %15 = zext i32 %14 to i64
  %16 = load i32, ptr %5, align 4, !tbaa !29
  %17 = zext i32 %16 to i64
  %18 = shl i64 1, %17
  %19 = icmp ult i64 %15, %18
  br i1 %19, label %21, label %20

20:                                               ; preds = %13
  store i32 2, ptr %7, align 4
  call void @llvm.lifetime.end.p0(i64 4, ptr %6) #3
  br label %54

21:                                               ; preds = %13
  call void @llvm.lifetime.start.p0(i64 4, ptr %8) #3
  %22 = load i32, ptr %4, align 4, !tbaa !29
  store i32 %22, ptr %8, align 4, !tbaa !29
  call void @llvm.lifetime.start.p0(i64 4, ptr %9) #3
  store i32 0, ptr %9, align 4, !tbaa !29
  br label %23

23:                                               ; preds = %46, %21
  %24 = load i32, ptr %9, align 4, !tbaa !29
  %25 = load i32, ptr %5, align 4, !tbaa !29
  %26 = icmp ult i32 %24, %25
  br i1 %26, label %28, label %27

27:                                               ; preds = %23
  store i32 5, ptr %7, align 4
  call void @llvm.lifetime.end.p0(i64 4, ptr %9) #3
  br label %49

28:                                               ; preds = %23
  %29 = load i32, ptr %6, align 4, !tbaa !29
  %30 = load i32, ptr %9, align 4, !tbaa !29
  %31 = shl i32 1, %30
  %32 = and i32 %29, %31
  %33 = icmp ne i32 %32, 0
  br i1 %33, label %34, label %45

34:                                               ; preds = %28
  %35 = getelementptr inbounds nuw %"class.sat::lut_finder", ptr %10, i32 0, i32 9
  %36 = load i32, ptr %9, align 4, !tbaa !29
  %37 = call noundef nonnull align 4 dereferenceable(4) ptr @_ZN6vectorIjLb0EjEixEj(ptr noundef nonnull align 8 dereferenceable(8) %35, i32 noundef %36)
  %38 = load i32, ptr %37, align 4, !tbaa !29
  %39 = zext i32 %38 to i64
  %40 = shl i64 1, %39
  %41 = load i32, ptr %8, align 4, !tbaa !29
  %42 = zext i32 %41 to i64
  %43 = or i64 %42, %40
  %44 = trunc i64 %43 to i32
  store i32 %44, ptr %8, align 4, !tbaa !29
  br label %45

45:                                               ; preds = %34, %28
  br label %46

46:                                               ; preds = %45
  %47 = load i32, ptr %9, align 4, !tbaa !29
  %48 = add i32 %47, 1
  store i32 %48, ptr %9, align 4, !tbaa !29
  br label %23, !llvm.loop !102

49:                                               ; preds = %27
  %50 = load i32, ptr %8, align 4, !tbaa !29
  call void @_ZN3sat10lut_finder15set_combinationEj(ptr noundef nonnull align 8 dereferenceable(176) %10, i32 noundef %50)
  call void @llvm.lifetime.end.p0(i64 4, ptr %8) #3
  br label %51

51:                                               ; preds = %49
  %52 = load i32, ptr %6, align 4, !tbaa !29
  %53 = add i32 %52, 1
  store i32 %53, ptr %6, align 4, !tbaa !29
  br label %13, !llvm.loop !103

54:                                               ; preds = %20
  %55 = getelementptr inbounds nuw %"class.sat::lut_finder", ptr %10, i32 0, i32 7
  %56 = call noundef i32 @_ZNK6vectorIjLb0EjE4sizeEv(ptr noundef nonnull align 8 dereferenceable(8) %55)
  %57 = call noundef zeroext i1 @_ZN3sat10lut_finder14lut_is_definedEj(ptr noundef nonnull align 8 dereferenceable(176) %10, i32 noundef %56)
  store i32 1, ptr %7, align 4
  call void @llvm.lifetime.end.p0(i64 4, ptr %5) #3
  ret i1 %57
}