; Function Attrs: mustprogress nofree norecurse nosync nounwind memory(read, argmem: readwrite, inaccessiblemem: none) uwtable
define hidden noundef zeroext i1 @_ZN3sat10lut_finder19update_combinationsEj(ptr noundef nonnull align 8 captures(none) dereferenceable(176) %0, i32 noundef %1) local_unnamed_addr #8 align 2 {
  %3 = getelementptr inbounds nuw i8, ptr %0, i64 72
  %4 = load ptr, ptr %3, align 8, !tbaa !31
  %5 = icmp eq ptr %4, null
  br i1 %5, label %_ZNK6vectorIjLb0EjE4sizeEv.exit.thread, label %_ZNK6vectorIjLb0EjE4sizeEv.exit

_ZNK6vectorIjLb0EjE4sizeEv.exit.thread:           ; preds = %2
  %6 = getelementptr inbounds nuw i8, ptr %0, i64 24
  %7 = getelementptr inbounds nuw i8, ptr %0, i64 32
  %.promoted24 = load i64, ptr %6, align 8, !tbaa !62
  %.promoted1925 = load i32, ptr %7, align 8
  br label %_ZNK6vectorIjLb0EjE4sizeEv.exit.split

_ZNK6vectorIjLb0EjE4sizeEv.exit:                  ; preds = %2
  %8 = getelementptr inbounds i8, ptr %4, i64 -4
  %9 = load i32, ptr %8, align 4, !tbaa !10
  %10 = zext i32 %9 to i64
  %.not = icmp eq i32 %9, 0
  %11 = getelementptr inbounds nuw i8, ptr %0, i64 24
  %12 = getelementptr inbounds nuw i8, ptr %0, i64 32
  %.promoted = load i64, ptr %11, align 8, !tbaa !62
  %.promoted19 = load i32, ptr %12, align 8
  br i1 %.not, label %_ZNK6vectorIjLb0EjE4sizeEv.exit.split, label %.preheader.us

.preheader.us:                                    ; preds = %_ZNK6vectorIjLb0EjE4sizeEv.exit, %_ZN3sat10lut_finder15set_combinationEj.exit.us
  %13 = phi i32 [ %18, %_ZN3sat10lut_finder15set_combinationEj.exit.us ], [ %.promoted19, %_ZNK6vectorIjLb0EjE4sizeEv.exit ]
  %14 = phi i64 [ %19, %_ZN3sat10lut_finder15set_combinationEj.exit.us ], [ %.promoted, %_ZNK6vectorIjLb0EjE4sizeEv.exit ]
  %.01318.us = phi i32 [ %20, %_ZN3sat10lut_finder15set_combinationEj.exit.us ], [ 0, %_ZNK6vectorIjLb0EjE4sizeEv.exit ]
  br label %23

15:                                               ; preds = %._crit_edge.us
  %16 = or i64 %14, %36
  store i64 %16, ptr %11, align 8, !tbaa !62
  %17 = add i32 %13, 1
  store i32 %17, ptr %12, align 8, !tbaa !63
  br label %_ZN3sat10lut_finder15set_combinationEj.exit.us

_ZN3sat10lut_finder15set_combinationEj.exit.us:   ; preds = %15, %._crit_edge.us
  %18 = phi i32 [ %13, %._crit_edge.us ], [ %17, %15 ]
  %19 = phi i64 [ %14, %._crit_edge.us ], [ %16, %15 ]
  %20 = add i32 %.01318.us, 1
  %21 = zext i32 %20 to i64
  %.highbits.us = lshr i64 %21, %10
  %22 = icmp eq i64 %.highbits.us, 0
  br i1 %22, label %.preheader.us, label %.split.us, !llvm.loop !68

23:                                               ; preds = %.preheader.us, %34
  %indvars.iv = phi i64 [ 0, %.preheader.us ], [ %indvars.iv.next, %34 ]
  %.01216.us = phi i32 [ %1, %.preheader.us ], [ %.1.us, %34 ]
  %24 = trunc nuw i64 %indvars.iv to i32
  %25 = shl nuw i32 1, %24
  %26 = and i32 %25, %.01318.us
  %.not.us = icmp eq i32 %26, 0
  br i1 %.not.us, label %34, label %27

27:                                               ; preds = %23
  %28 = getelementptr inbounds nuw i32, ptr %4, i64 %indvars.iv
  %29 = load i32, ptr %28, align 4, !tbaa !10
  %30 = zext nneg i32 %29 to i64
  %31 = shl nuw i64 1, %30
  %32 = trunc i64 %31 to i32
  %33 = or i32 %.01216.us, %32
  br label %34

34:                                               ; preds = %27, %23
  %.1.us = phi i32 [ %33, %27 ], [ %.01216.us, %23 ]
  %indvars.iv.next = add nuw nsw i64 %indvars.iv, 1
  %exitcond.not = icmp eq i64 %indvars.iv.next, %10
  br i1 %exitcond.not, label %._crit_edge.us, label %23, !llvm.loop !69

._crit_edge.us:                                   ; preds = %34
  %35 = zext nneg i32 %.1.us to i64
  %36 = shl nuw i64 1, %35
  %37 = and i64 %14, %36
  %.not.i.us = icmp eq i64 %37, 0
  br i1 %.not.i.us, label %15, label %_ZN3sat10lut_finder15set_combinationEj.exit.us

_ZNK6vectorIjLb0EjE4sizeEv.exit.split:            ; preds = %_ZNK6vectorIjLb0EjE4sizeEv.exit.thread, %_ZNK6vectorIjLb0EjE4sizeEv.exit
  %.promoted1927 = phi i32 [ %.promoted1925, %_ZNK6vectorIjLb0EjE4sizeEv.exit.thread ], [ %.promoted19, %_ZNK6vectorIjLb0EjE4sizeEv.exit ]
  %.promoted26 = phi i64 [ %.promoted24, %_ZNK6vectorIjLb0EjE4sizeEv.exit.thread ], [ %.promoted, %_ZNK6vectorIjLb0EjE4sizeEv.exit ]
  %38 = phi ptr [ %7, %_ZNK6vectorIjLb0EjE4sizeEv.exit.thread ], [ %12, %_ZNK6vectorIjLb0EjE4sizeEv.exit ]
  %39 = phi ptr [ %6, %_ZNK6vectorIjLb0EjE4sizeEv.exit.thread ], [ %11, %_ZNK6vectorIjLb0EjE4sizeEv.exit ]
  %40 = zext nneg i32 %1 to i64
  %41 = shl nuw i64 1, %40
  %42 = and i64 %.promoted26, %41
  %.not.i = icmp eq i64 %42, 0
  br i1 %.not.i, label %71, label %.split.us

.split.us:                                        ; preds = %_ZN3sat10lut_finder15set_combinationEj.exit.us, %71, %_ZNK6vectorIjLb0EjE4sizeEv.exit.split
  %43 = phi i64 [ %.promoted26, %_ZNK6vectorIjLb0EjE4sizeEv.exit.split ], [ %73, %71 ], [ %19, %_ZN3sat10lut_finder15set_combinationEj.exit.us ]
  %44 = phi i32 [ %.promoted1927, %_ZNK6vectorIjLb0EjE4sizeEv.exit.split ], [ %72, %71 ], [ %18, %_ZN3sat10lut_finder15set_combinationEj.exit.us ]
  %45 = getelementptr inbounds nuw i8, ptr %0, i64 56
  %46 = load ptr, ptr %45, align 8, !tbaa !31
  %47 = icmp eq ptr %46, null
  br i1 %47, label %_ZNK6vectorIjLb0EjE4sizeEv.exit15, label %48

48:                                               ; preds = %.split.us
  %49 = getelementptr inbounds i8, ptr %46, i64 -4
  %50 = load i32, ptr %49, align 4, !tbaa !10
  br label %_ZNK6vectorIjLb0EjE4sizeEv.exit15

_ZNK6vectorIjLb0EjE4sizeEv.exit15:                ; preds = %.split.us, %48
  %.0.i14 = phi i32 [ %50, %48 ], [ 0, %.split.us ]
  %51 = zext i32 %44 to i64
  %52 = lshr i32 %.0.i14, 1
  %53 = zext nneg i32 %52 to i64
  %.highbits.i = lshr i64 %51, %53
  %54 = icmp eq i64 %.highbits.i, 0
  br i1 %54, label %_ZN3sat10lut_finder14lut_is_definedEj.exit, label %.preheader.i

.preheader.i:                                     ; preds = %_ZNK6vectorIjLb0EjE4sizeEv.exit15
  %55 = getelementptr inbounds nuw i8, ptr %0, i64 80
  %56 = icmp ult i32 %.0.i14, 6
  %57 = zext i32 %.0.i14 to i64
  %58 = shl nuw nsw i64 1, %57
  %notmask.i.i = shl nsw i64 -1, %58
  %59 = xor i64 %notmask.i.i, -1
  %60 = select i1 %56, i64 %59, i64 -1
  br label %61

61:                                               ; preds = %62, %.preheader.i
  %indvars.iv.i = phi i64 [ %57, %.preheader.i ], [ %63, %62 ]
  %.not.not.not.i.not.not = icmp ne i64 %indvars.iv.i, 0
  br i1 %.not.not.not.i.not.not, label %62, label %_ZN3sat10lut_finder14lut_is_definedEj.exit

62:                                               ; preds = %61
  %63 = add nsw i64 %indvars.iv.i, -1
  %64 = getelementptr inbounds nuw [7 x i64], ptr %55, i64 0, i64 %63
  %65 = load i64, ptr %64, align 8, !tbaa !34
  %.0.i.i = and i64 %65, %60
  %66 = shl nuw i64 1, %63
  %67 = lshr i64 %43, %66
  %68 = or i64 %67, %43
  %69 = and i64 %.0.i.i, %68
  %70 = icmp eq i64 %69, %.0.i.i
  br i1 %70, label %_ZN3sat10lut_finder14lut_is_definedEj.exit, label %61, !llvm.loop !70

_ZN3sat10lut_finder14lut_is_definedEj.exit:       ; preds = %61, %62, %_ZNK6vectorIjLb0EjE4sizeEv.exit15
  %.08.i = phi i1 [ false, %_ZNK6vectorIjLb0EjE4sizeEv.exit15 ], [ %.not.not.not.i.not.not, %62 ], [ %.not.not.not.i.not.not, %61 ]
  ret i1 %.08.i

71:                                               ; preds = %_ZNK6vectorIjLb0EjE4sizeEv.exit.split
  %72 = add i32 %.promoted1927, 1
  %73 = or i64 %.promoted26, %41
  store i64 %73, ptr %39, align 8, !tbaa !62
  store i32 %72, ptr %38, align 8, !tbaa !63
  br label %.split.us
}